target datalayout = "e-m:e-p270:32:32-p271:32:32-p272:64:64-i64:64-i128:128-f80:128-n8:16:32:64-S128"
target triple = "x86_64-unknown-linux-gnu"

@.str = private unnamed_addr constant [77 x i8] c"[drm] Transparent Hugepage support is recommended for optimal performance%s\0A\00", align 1
@.str.1 = private unnamed_addr constant [19 x i8] c" on this platform!\00", align 1
@.str.2 = private unnamed_addr constant [24 x i8] c" when IOMMU is enabled!\00", align 1

; Function Attrs: fn_ret_thunk_extern nounwind null_pointer_is_valid
define dso_local void @i915_gemfs_init(ptr noundef %0) local_unnamed_addr #0 align 16 {
  %2 = getelementptr inbounds i8, ptr %0, i64 7176
  %3 = load i8, ptr %2, align 8
  %4 = icmp ult i8 %3, 11
  br i1 %4, label %5, label %7

5:                                                ; preds = %1
  %6 = tail call zeroext i1 @i915_vtd_active(ptr noundef %0) #3
  br i1 %6, label %7, label %17

7:                                                ; preds = %5, %1
  %8 = icmp eq ptr %0, null
  br i1 %8, label %12, label %9

9:                                                ; preds = %7
  %10 = getelementptr inbounds i8, ptr %0, i64 8
  %11 = load ptr, ptr %10, align 8
  br label %12

12:                                               ; preds = %9, %7
  %13 = phi ptr [ %11, %9 ], [ null, %7 ]
  %14 = load i8, ptr %2, align 8
  %15 = icmp ugt i8 %14, 10
  %16 = select i1 %15, ptr @.str.1, ptr @.str.2
  tail call void (ptr, ptr, ...) @_dev_notice(ptr noundef %13, ptr noundef nonnull @.str, ptr noundef nonnull %16) #4
  br label %17

17:                                               ; preds = %12, %5
  ret void
}

; Function Attrs: null_pointer_is_valid
declare dso_local zeroext i1 @i915_vtd_active(ptr noundef) local_unnamed_addr #1

; Function Attrs: cold null_pointer_is_valid
declare dso_local void @_dev_notice(ptr noundef, ptr noundef, ...) local_unnamed_addr #2

; Function Attrs: fn_ret_thunk_extern nounwind null_pointer_is_valid
define dso_local void @i915_gemfs_fini(ptr nocapture noundef readonly %0) local_unnamed_addr #0 align 16 {
  %2 = getelementptr inbounds i8, ptr %0, i64 8496
  %3 = load ptr, ptr %2, align 8
  tail call void @kern_unmount(ptr noundef %3) #3
  ret void
}

; Function Attrs: null_pointer_is_valid
declare dso_local void @kern_unmount(ptr noundef) local_unnamed_addr #1


!llvm.module.flags = !{!0, !1, !2, !3, !4}

!0 = !{i32 1, !"wchar_size", i32 2}
!1 = !{i32 8, !"cf-protection-branch", i32 1}
!2 = !{i32 4, !"function_return_thunk_extern", i32 1}
!3 = !{i32 4, !"indirect_branch_cs_prefix", i32 1}
!4 = !{i32 4, !"SkipRaxSetup", i32 1}
